; Function Attrs: mustprogress uwtable
define internal fastcc void @_ZN6icu_7712_GLOBAL__N_130initializeSystemDefaultCenturyEv() unnamed_addr #0 personality ptr @__gxx_personality_v0 {
  %1 = alloca i32, align 4
  %2 = alloca %"class.icu_77::IndianCalendar", align 8
  %3 = alloca %"class.icu_77::Locale", align 8
  call void @llvm.lifetime.start.p0(i64 4, ptr nonnull %1) #8
  store i32 0, ptr %1, align 4, !tbaa !9
  call void @llvm.lifetime.start.p0(i64 192, ptr nonnull %2) #8
  call void @llvm.lifetime.start.p0(i64 224, ptr nonnull %3) #8
  call void @_ZN6icu_776LocaleC1EPKcS2_S2_S2_(ptr noundef nonnull align 8 dereferenceable(217) %3, ptr noundef nonnull @.str.2, ptr noundef null, ptr noundef null, ptr noundef null)
  invoke void @_ZN6icu_7714IndianCalendarC1ERKNS_6LocaleER10UErrorCode(ptr noundef nonnull align 8 dereferenceable(192) %2, ptr noundef nonnull align 8 dereferenceable(217) %3, ptr noundef nonnull align 4 dereferenceable(4) %1)
          to label %4 unwind label %7

4:                                                ; preds = %0
  call void @_ZN6icu_776LocaleD1Ev(ptr noundef nonnull align 8 dereferenceable(217) %3) #8
  call void @llvm.lifetime.end.p0(i64 224, ptr nonnull %3) #8
  %5 = load i32, ptr %1, align 4, !tbaa !9
  %6 = icmp slt i32 %5, 1
  br i1 %6, label %9, label %16

7:                                                ; preds = %0
  %8 = landingpad { ptr, i32 }
          cleanup
  call void @_ZN6icu_776LocaleD1Ev(ptr noundef nonnull align 8 dereferenceable(217) %3) #8
  call void @llvm.lifetime.end.p0(i64 224, ptr nonnull %3) #8
  br label %19

9:                                                ; preds = %4
  %10 = invoke noundef double @_ZN6icu_778Calendar6getNowEv()
          to label %11 unwind label %17

11:                                               ; preds = %9
  invoke void @_ZN6icu_778Calendar15setTimeInMillisEdR10UErrorCode(ptr noundef nonnull align 8 dereferenceable(192) %2, double noundef %10, ptr noundef nonnull align 4 dereferenceable(4) %1)
          to label %_ZN6icu_778Calendar7setTimeEdR10UErrorCode.exit unwind label %17

_ZN6icu_778Calendar7setTimeEdR10UErrorCode.exit:  ; preds = %11
  invoke void @_ZN6icu_778Calendar3addE19UCalendarDateFieldsiR10UErrorCode(ptr noundef nonnull align 8 dereferenceable(192) %2, i32 noundef 1, i32 noundef -80, ptr noundef nonnull align 4 dereferenceable(4) %1)
          to label %12 unwind label %17

12:                                               ; preds = %_ZN6icu_778Calendar7setTimeEdR10UErrorCode.exit
  %13 = invoke noundef double @_ZNK6icu_778Calendar15getTimeInMillisER10UErrorCode(ptr noundef nonnull align 8 dereferenceable(192) %2, ptr noundef nonnull align 4 dereferenceable(4) %1)
          to label %_ZNK6icu_778Calendar7getTimeER10UErrorCode.exit unwind label %17

_ZNK6icu_778Calendar7getTimeER10UErrorCode.exit:  ; preds = %12
  store double %13, ptr @_ZN6icu_7712_GLOBAL__N_126gSystemDefaultCenturyStartE, align 8, !tbaa !12
  %14 = invoke noundef i32 @_ZNK6icu_778Calendar3getE19UCalendarDateFieldsR10UErrorCode(ptr noundef nonnull align 8 dereferenceable(192) %2, i32 noundef 1, ptr noundef nonnull align 4 dereferenceable(4) %1)
          to label %15 unwind label %17

15:                                               ; preds = %_ZNK6icu_778Calendar7getTimeER10UErrorCode.exit
  store i32 %14, ptr @_ZN6icu_7712_GLOBAL__N_130gSystemDefaultCenturyStartYearE, align 4, !tbaa !6
  br label %16

16:                                               ; preds = %4, %15
  call void @_ZN6icu_7714IndianCalendarD1Ev(ptr noundef nonnull align 8 dereferenceable(192) %2) #8
  call void @llvm.lifetime.end.p0(i64 192, ptr nonnull %2) #8
  call void @llvm.lifetime.end.p0(i64 4, ptr nonnull %1) #8
  ret void

17:                                               ; preds = %12, %11, %_ZNK6icu_778Calendar7getTimeER10UErrorCode.exit, %_ZN6icu_778Calendar7setTimeEdR10UErrorCode.exit, %9
  %18 = landingpad { ptr, i32 }
          cleanup
  call void @_ZN6icu_7714IndianCalendarD1Ev(ptr noundef nonnull align 8 dereferenceable(192) %2) #8
  br label %19

19:                                               ; preds = %17, %7
  %.pn = phi { ptr, i32 } [ %18, %17 ], [ %8, %7 ]
  call void @llvm.lifetime.end.p0(i64 192, ptr nonnull %2) #8
  call void @llvm.lifetime.end.p0(i64 4, ptr nonnull %1) #8
  resume { ptr, i32 } %.pn
}